target datalayout = "e-m:e-p270:32:32-p271:32:32-p272:64:64-i64:64-i128:128-f80:128-n8:16:32:64-S128"
target triple = "x86_64-pc-linux-gnu"

; Function Attrs: mustprogress nounwind uwtable
define linkonce_odr hidden noundef i32 @_ZN22G1CodeRootSetHashTable4hashEj(i32 noundef %0) #1 comdat align 2 {
  %2 = alloca i32, align 4
  store i32 %0, ptr %2, align 4
  %3 = load i32, ptr %2, align 4
  %4 = xor i32 %3, -1
  %5 = load i32, ptr %2, align 4
  %6 = shl i32 %5, 15
  %7 = add i32 %4, %6
  store i32 %7, ptr %2, align 4
  %8 = load i32, ptr %2, align 4
  %9 = load i32, ptr %2, align 4
  %10 = lshr i32 %9, 12
  %11 = xor i32 %8, %10
  store i32 %11, ptr %2, align 4
  %12 = load i32, ptr %2, align 4
  %13 = load i32, ptr %2, align 4
  %14 = shl i32 %13, 2
  %15 = add i32 %12, %14
  store i32 %15, ptr %2, align 4
  %16 = load i32, ptr %2, align 4
  %17 = load i32, ptr %2, align 4
  %18 = lshr i32 %17, 4
  %19 = xor i32 %16, %18
  store i32 %19, ptr %2, align 4
  %20 = load i32, ptr %2, align 4
  %21 = mul i32 %20, 2057
  store i32 %21, ptr %2, align 4
  %22 = load i32, ptr %2, align 4
  %23 = load i32, ptr %2, align 4
  %24 = lshr i32 %23, 16
  %25 = xor i32 %22, %24
  store i32 %25, ptr %2, align 4
  %26 = load i32, ptr %2, align 4
  ret i32 %26
}

; Function Attrs: mustprogress nounwind uwtable
define linkonce_odr hidden noundef i64 @_ZN22G1CodeRootSetHashTable8get_hashEP7nmethod(ptr noundef %0) #1 comdat align 2 {
  %2 = alloca ptr, align 8
  %3 = alloca i64, align 8
  store ptr %0, ptr %2, align 8
  %4 = load ptr, ptr %2, align 8
  %5 = ptrtoint ptr %4 to i64
  store i64 %5, ptr %3, align 8
  %6 = load i64, ptr %3, align 8
  %7 = trunc i64 %6 to i32
  %8 = load i64, ptr %3, align 8
  %9 = lshr i64 %8, 32
  %10 = trunc i64 %9 to i32
  %11 = xor i32 %7, %10
  %12 = call noundef i32 @_ZN22G1CodeRootSetHashTable4hashEj(i32 noundef %11)
  %13 = zext i32 %12 to i64
  ret i64 %13
}

; Function Attrs: mustprogress nounwind uwtable
define hidden noundef i64 @_ZN28G1CodeRootSetHashTableConfig8get_hashERKP7nmethodPb(ptr noundef nonnull align 8 dereferenceable(8) %0, ptr noundef %1) #1 align 2 {
  %3 = alloca ptr, align 8
  %4 = alloca ptr, align 8
  store ptr %0, ptr %3, align 8
  store ptr %1, ptr %4, align 8
  %5 = load ptr, ptr %4, align 8
  store i8 0, ptr %5, align 1
  %6 = load ptr, ptr %3, align 8
  %7 = load ptr, ptr %6, align 8
  %8 = call noundef i64 @_ZN22G1CodeRootSetHashTable8get_hashEP7nmethod(ptr noundef %7)
  ret i64 %8
}