; Function Attrs: mustprogress nofree norecurse nosync nounwind willreturn memory(argmem: readwrite) uwtable
define hidden noundef i64 @_ZN28G1CodeRootSetHashTableConfig8get_hashERKP7nmethodPb(ptr nocapture noundef nonnull readonly align 8 dereferenceable(8) %0, ptr nocapture noundef writeonly %1) local_unnamed_addr #1 align 2 {
  store i8 0, ptr %1, align 1
  %3 = load ptr, ptr %0, align 8
  %4 = ptrtoint ptr %3 to i64
  %5 = lshr i64 %4, 32
  %6 = xor i64 %5, %4
  %7 = trunc i64 %6 to i32
  %8 = xor i32 %7, -1
  %9 = shl i32 %7, 15
  %10 = add i32 %9, %8
  %11 = lshr i32 %10, 12
  %12 = xor i32 %11, %10
  %13 = mul i32 %12, 5
  %14 = lshr i32 %13, 4
  %15 = xor i32 %14, %13
  %16 = mul i32 %15, 2057
  %17 = lshr i32 %16, 16
  %18 = xor i32 %17, %16
  %19 = zext i32 %18 to i64
  ret i64 %19
}